; Function Attrs: mustprogress uwtable
define dso_local void @_ZN4pbrt23SimpleVolPathIntegrator6CreateERKNS_19ParameterDictionaryENS_6CameraENS_7SamplerENS_9PrimitiveESt6vectorINS_5LightESaIS8_EEPKNS_7FileLocE(ptr noalias sret(%"class.std::unique_ptr.179") align 8 %agg.result, ptr noundef nonnull align 8 dereferenceable(108) %parameters, ptr noundef %camera, ptr noundef %sampler, ptr noundef %aggregate, ptr noundef %lights, ptr nocapture readnone %loc) local_unnamed_addr #1 align 2 personality ptr @__gxx_personality_v0 {
entry:
  %maxDepth = alloca i32, align 4
  %ref.tmp = alloca %"class.std::__cxx11::basic_string", align 8
  %ref.tmp1 = alloca %"class.std::allocator.10", align 1
  call void @_ZNSaIcEC1Ev(ptr noundef nonnull align 1 dereferenceable(1) %ref.tmp1) #31
  %call.i2 = invoke noundef ptr @_ZNSt7__cxx1112basic_stringIcSt11char_traitsIcESaIcEE13_M_local_dataEv(ptr noundef nonnull align 8 dereferenceable(32) %ref.tmp)
          to label %call.i.noexc unwind label %lpad

call.i.noexc:                                     ; preds = %entry
  invoke void @_ZNSt7__cxx1112basic_stringIcSt11char_traitsIcESaIcEE12_Alloc_hiderC1EPcRKS3_(ptr noundef nonnull align 8 dereferenceable(8) %ref.tmp, ptr noundef %call.i2, ptr noundef nonnull align 1 dereferenceable(1) %ref.tmp1)
          to label %.noexc unwind label %lpad

.noexc:                                           ; preds = %call.i.noexc
  invoke void @_ZNSt7__cxx1112basic_stringIcSt11char_traitsIcESaIcEE12_M_constructIPKcEEvT_S8_St20forward_iterator_tag(ptr noundef nonnull align 8 dereferenceable(32) %ref.tmp, ptr noundef nonnull @.str, ptr noundef nonnull getelementptr inbounds ([9 x i8], ptr @.str, i64 0, i64 8))
          to label %invoke.cont unwind label %lpad.i

lpad.i:                                           ; preds = %.noexc
  %0 = landingpad { ptr, i32 }
          cleanup
  call void @_ZNSaIcED2Ev(ptr noundef nonnull align 1 dereferenceable(1) %ref.tmp) #31
  br label %ehcleanup

invoke.cont:                                      ; preds = %.noexc
  %call = invoke noundef i32 @_ZNK4pbrt19ParameterDictionary9GetOneIntERKNSt7__cxx1112basic_stringIcSt11char_traitsIcESaIcEEEi(ptr noundef nonnull align 8 dereferenceable(108) %parameters, ptr noundef nonnull align 8 dereferenceable(32) %ref.tmp, i32 noundef 5)
          to label %invoke.cont3 unwind label %lpad2

invoke.cont3:                                     ; preds = %invoke.cont
  call void @_ZNSt7__cxx1112basic_stringIcSt11char_traitsIcESaIcEED1Ev(ptr noundef nonnull align 8 dereferenceable(32) %ref.tmp) #31
  call void @_ZNSaIcED1Ev(ptr noundef nonnull align 1 dereferenceable(1) %ref.tmp1) #31
  store i32 %call, ptr %maxDepth, align 4
  call void @_ZSt11make_uniqueIN4pbrt23SimpleVolPathIntegratorEJRiRNS0_6CameraERNS0_7SamplerERNS0_9PrimitiveERSt6vectorINS0_5LightESaISA_EEEENSt8__detail9_MakeUniqIT_E15__single_objectEDpOT0_(ptr sret(%"class.std::unique_ptr.179") align 8 %agg.result, ptr noundef nonnull align 4 dereferenceable(4) %maxDepth, ptr noundef nonnull align 8 dereferenceable(8) %camera, ptr noundef nonnull align 8 dereferenceable(8) %sampler, ptr noundef nonnull align 8 dereferenceable(8) %aggregate, ptr noundef nonnull align 8 dereferenceable(24) %lights)
  ret void

lpad:                                             ; preds = %call.i.noexc, %entry
  %1 = landingpad { ptr, i32 }
          cleanup
  br label %ehcleanup

lpad2:                                            ; preds = %invoke.cont
  %2 = landingpad { ptr, i32 }
          cleanup
  call void @_ZNSt7__cxx1112basic_stringIcSt11char_traitsIcESaIcEED1Ev(ptr noundef nonnull align 8 dereferenceable(32) %ref.tmp) #31
  br label %ehcleanup

ehcleanup:                                        ; preds = %lpad, %lpad.i, %lpad2
  %.pn = phi { ptr, i32 } [ %2, %lpad2 ], [ %1, %lpad ], [ %0, %lpad.i ]
  call void @_ZNSaIcED1Ev(ptr noundef nonnull align 1 dereferenceable(1) %ref.tmp1) #31
  resume { ptr, i32 } %.pn
}